; Function Attrs: mustprogress ssp uwtable
define noundef zeroext i1 @_ZN6open3d7utility16IJsonConvertible26EigenVector4dFromJsonArrayERN5Eigen6MatrixIdLi4ELi1ELi0ELi4ELi1EEERKN4Json5ValueE(ptr noundef nonnull writeonly align 16 captures(none) dereferenceable(32) %0, ptr noundef nonnull align 8 dereferenceable(40) %1) local_unnamed_addr #1 align 2 personality ptr @__gxx_personality_v0 {
  %3 = tail call noundef i32 @_ZNK4Json5Value4sizeEv(ptr noundef nonnull align 8 dereferenceable(40) %1)
  %.not = icmp eq i32 %3, 4
  br i1 %.not, label %4, label %16

4:                                                ; preds = %2
  %5 = tail call noundef nonnull align 8 dereferenceable(40) ptr @_ZNK4Json5ValueixEi(ptr noundef nonnull align 8 dereferenceable(40) %1, i32 noundef 0)
  %6 = tail call noundef double @_ZNK4Json5Value8asDoubleEv(ptr noundef nonnull align 8 dereferenceable(40) %5)
  store double %6, ptr %0, align 16, !tbaa !600
  %7 = tail call noundef nonnull align 8 dereferenceable(40) ptr @_ZNK4Json5ValueixEi(ptr noundef nonnull align 8 dereferenceable(40) %1, i32 noundef 1)
  %8 = tail call noundef double @_ZNK4Json5Value8asDoubleEv(ptr noundef nonnull align 8 dereferenceable(40) %7)
  %9 = getelementptr inbounds nuw i8, ptr %0, i64 8
  store double %8, ptr %9, align 8, !tbaa !600
  %10 = tail call noundef nonnull align 8 dereferenceable(40) ptr @_ZNK4Json5ValueixEi(ptr noundef nonnull align 8 dereferenceable(40) %1, i32 noundef 2)
  %11 = tail call noundef double @_ZNK4Json5Value8asDoubleEv(ptr noundef nonnull align 8 dereferenceable(40) %10)
  %12 = getelementptr inbounds nuw i8, ptr %0, i64 16
  store double %11, ptr %12, align 16, !tbaa !600
  %13 = tail call noundef nonnull align 8 dereferenceable(40) ptr @_ZNK4Json5ValueixEi(ptr noundef nonnull align 8 dereferenceable(40) %1, i32 noundef 3)
  %14 = tail call noundef double @_ZNK4Json5Value8asDoubleEv(ptr noundef nonnull align 8 dereferenceable(40) %13)
  %15 = getelementptr inbounds nuw i8, ptr %0, i64 24
  store double %14, ptr %15, align 8, !tbaa !600
  br label %16

16:                                               ; preds = %2, %4
  ret i1 %.not
}